; ModuleID = 'source-C-CXX/61/2427.cpp'
source_filename = "source-C-CXX/61/2427.cpp"
target datalayout = "e-m:e-p270:32:32-p271:32:32-p272:64:64-i64:64-f80:128-n8:16:32:64-S128"
target triple = "x86_64-pc-linux-gnu"

%"class.std::ios_base::Init" = type { i8 }
%"class.std::basic_istream" = type { i32 (...)**, i64, %"class.std::basic_ios" }
%"class.std::basic_ios" = type { %"class.std::ios_base", %"class.std::basic_ostream"*, i8, i8, %"class.std::basic_streambuf"*, %"class.std::ctype"*, %"class.std::num_put"*, %"class.std::num_get"* }
%"class.std::ios_base" = type { i32 (...)**, i64, i64, i32, i32, i32, %"struct.std::ios_base::_Callback_list"*, %"struct.std::ios_base::_Words", [8 x %"struct.std::ios_base::_Words"], i32, %"struct.std::ios_base::_Words"*, %"class.std::locale" }
%"struct.std::ios_base::_Callback_list" = type { %"struct.std::ios_base::_Callback_list"*, void (i32, %"class.std::ios_base"*, i32)*, i32, i32 }
%"struct.std::ios_base::_Words" = type { i8*, i64 }
%"class.std::locale" = type { %"class.std::locale::_Impl"* }
%"class.std::locale::_Impl" = type { i32, %"class.std::locale::facet"**, i64, %"class.std::locale::facet"**, i8** }
%"class.std::locale::facet" = type <{ i32 (...)**, i32, [4 x i8] }>
%"class.std::basic_ostream" = type { i32 (...)**, %"class.std::basic_ios" }
%"class.std::basic_streambuf" = type { i32 (...)**, i8*, i8*, i8*, i8*, i8*, i8*, %"class.std::locale" }
%"class.std::ctype" = type <{ %"class.std::locale::facet.base", [4 x i8], %struct.__locale_struct*, i8, [7 x i8], i32*, i32*, i16*, i8, [256 x i8], [256 x i8], i8, [6 x i8] }>
%"class.std::locale::facet.base" = type <{ i32 (...)**, i32 }>
%struct.__locale_struct = type { [13 x %struct.__locale_data*], i16*, i32*, i32*, [13 x i8*] }
%struct.__locale_data = type opaque
%"class.std::num_put" = type { %"class.std::locale::facet.base", [4 x i8] }
%"class.std::num_get" = type { %"class.std::locale::facet.base", [4 x i8] }

@_ZStL8__ioinit = internal global %"class.std::ios_base::Init" zeroinitializer, align 1
@__dso_handle = external hidden global i8
@_ZSt3cin = external global %"class.std::basic_istream", align 8
@_ZSt4cout = external global %"class.std::basic_ostream", align 8
@llvm.global_ctors = appending global [1 x { i32, void ()*, i8* }] [{ i32, void ()*, i8* } { i32 65535, void ()* @_GLOBAL__sub_I_2427.cpp, i8* null }]

declare void @_ZNSt8ios_base4InitC1Ev(%"class.std::ios_base::Init"* nonnull align 1 dereferenceable(1)) unnamed_addr #0

; Function Attrs: nounwind
declare void @_ZNSt8ios_base4InitD1Ev(%"class.std::ios_base::Init"* nonnull align 1 dereferenceable(1)) unnamed_addr #1

; Function Attrs: nofree nounwind
declare i32 @__cxa_atexit(void (i8*)*, i8*, i8*) local_unnamed_addr #2

; Function Attrs: mustprogress norecurse sspstrong uwtable
define dso_local i32 @main() local_unnamed_addr #3 {
  %1 = alloca i8, align 1
  %2 = alloca i8, align 1
  %3 = alloca i8, align 1
  %4 = alloca i8, align 1
  %5 = alloca [100 x [100 x i8]], align 16
  %6 = alloca [100 x i32], align 16
  call void @llvm.lifetime.start.p0i8(i64 1, i8* nonnull %4) #6
  %7 = getelementptr inbounds [100 x [100 x i8]], [100 x [100 x i8]]* %5, i64 0, i64 0, i64 0
  call void @llvm.lifetime.start.p0i8(i64 10000, i8* nonnull %7) #6
  %8 = bitcast [100 x i32]* %6 to i8*
  call void @llvm.lifetime.start.p0i8(i64 400, i8* nonnull %8) #6
  %9 = call nonnull align 8 dereferenceable(16) %"class.std::basic_istream"* @_ZNSi3getERc(%"class.std::basic_istream"* nonnull align 8 dereferenceable(16) @_ZSt3cin, i8* nonnull align 1 dereferenceable(1) %4)
  %10 = bitcast %"class.std::basic_istream"* %9 to i8**
  %11 = load i8*, i8** %10, align 8, !tbaa !5
  %12 = getelementptr i8, i8* %11, i64 -24
  %13 = bitcast i8* %12 to i64*
  %14 = load i64, i64* %13, align 8
  %15 = bitcast %"class.std::basic_istream"* %9 to i8*
  %16 = add nsw i64 %14, 32
  %17 = getelementptr inbounds i8, i8* %15, i64 %16
  %18 = bitcast i8* %17 to i32*
  %19 = load i32, i32* %18, align 8, !tbaa !8
  %20 = and i32 %19, 5
  %21 = icmp eq i32 %20, 0
  %22 = load i8, i8* %4, align 1
  %23 = icmp ne i8 %22, 10
  %24 = select i1 %21, i1 %23, i1 false
  br i1 %24, label %25, label %114

25:                                               ; preds = %0, %49
  %26 = phi i8 [ %66, %49 ], [ %22, %0 ]
  %27 = phi i32 [ %52, %49 ], [ 1, %0 ]
  %28 = phi i32 [ %51, %49 ], [ 1, %0 ]
  %29 = phi i32 [ %50, %49 ], [ 1, %0 ]
  %30 = icmp eq i8 %26, 32
  br i1 %30, label %36, label %31

31:                                               ; preds = %25
  %32 = sext i32 %29 to i64
  %33 = sext i32 %28 to i64
  %34 = getelementptr inbounds [100 x [100 x i8]], [100 x [100 x i8]]* %5, i64 0, i64 %32, i64 %33
  store i8 %26, i8* %34, align 1, !tbaa !18
  %35 = add nsw i32 %28, 1
  br label %49

36:                                               ; preds = %25
  %37 = icmp eq i32 %27, 1
  br i1 %37, label %38, label %45

38:                                               ; preds = %36
  %39 = add nsw i32 %28, -1
  %40 = sext i32 %29 to i64
  %41 = getelementptr inbounds [100 x i32], [100 x i32]* %6, i64 0, i64 %40
  store i32 %39, i32* %41, align 4, !tbaa !19
  %42 = add nsw i32 %29, 1
  %43 = sext i32 %42 to i64
  %44 = getelementptr inbounds [100 x [100 x i8]], [100 x [100 x i8]]* %5, i64 0, i64 %43, i64 0
  store i8 32, i8* %44, align 4, !tbaa !18
  br label %45

45:                                               ; preds = %38, %36
  %46 = phi i32 [ %42, %38 ], [ %29, %36 ]
  %47 = phi i32 [ 1, %38 ], [ %28, %36 ]
  %48 = add nsw i32 %27, 1
  br label %49

49:                                               ; preds = %45, %31
  %50 = phi i32 [ %29, %31 ], [ %46, %45 ]
  %51 = phi i32 [ %35, %31 ], [ %47, %45 ]
  %52 = phi i32 [ 1, %31 ], [ %48, %45 ]
  %53 = call nonnull align 8 dereferenceable(16) %"class.std::basic_istream"* @_ZNSi3getERc(%"class.std::basic_istream"* nonnull align 8 dereferenceable(16) @_ZSt3cin, i8* nonnull align 1 dereferenceable(1) %4)
  %54 = bitcast %"class.std::basic_istream"* %53 to i8**
  %55 = load i8*, i8** %54, align 8, !tbaa !5
  %56 = getelementptr i8, i8* %55, i64 -24
  %57 = bitcast i8* %56 to i64*
  %58 = load i64, i64* %57, align 8
  %59 = bitcast %"class.std::basic_istream"* %53 to i8*
  %60 = add nsw i64 %58, 32
  %61 = getelementptr inbounds i8, i8* %59, i64 %60
  %62 = bitcast i8* %61 to i32*
  %63 = load i32, i32* %62, align 8, !tbaa !8
  %64 = and i32 %63, 5
  %65 = icmp eq i32 %64, 0
  %66 = load i8, i8* %4, align 1
  %67 = icmp ne i8 %66, 10
  %68 = select i1 %65, i1 %67, i1 false
  br i1 %68, label %25, label %69, !llvm.loop !20

69:                                               ; preds = %49
  %70 = add nsw i32 %51, -1
  %71 = sext i32 %50 to i64
  %72 = getelementptr inbounds [100 x i32], [100 x i32]* %6, i64 0, i64 %71
  store i32 %70, i32* %72, align 4, !tbaa !19
  %73 = icmp sgt i32 %50, 1
  br i1 %73, label %74, label %85

74:                                               ; preds = %69
  %75 = zext i32 %50 to i64
  br label %76

76:                                               ; preds = %74, %103
  %77 = phi i64 [ 1, %74 ], [ %105, %103 ]
  %78 = phi i32 [ 0, %74 ], [ %104, %103 ]
  %79 = getelementptr inbounds [100 x i32], [100 x i32]* %6, i64 0, i64 %77
  %80 = load i32, i32* %79, align 4, !tbaa !19
  %81 = icmp slt i32 %80, 1
  br i1 %81, label %103, label %82

82:                                               ; preds = %76
  %83 = add nuw i32 %80, 1
  %84 = zext i32 %83 to i64
  br label %89

85:                                               ; preds = %103, %69
  %86 = icmp sgt i32 %51, 1
  br i1 %86, label %87, label %114

87:                                               ; preds = %85
  %88 = zext i32 %51 to i64
  br label %107

89:                                               ; preds = %82, %99
  %90 = phi i64 [ 1, %82 ], [ %101, %99 ]
  %91 = phi i32 [ %78, %82 ], [ %100, %99 ]
  %92 = getelementptr inbounds [100 x [100 x i8]], [100 x [100 x i8]]* %5, i64 0, i64 %77, i64 %90
  %93 = load i8, i8* %92, align 1, !tbaa !18
  call void @llvm.lifetime.start.p0i8(i64 1, i8* nonnull %3)
  store i8 %93, i8* %3, align 1, !tbaa !18
  %94 = call nonnull align 8 dereferenceable(8) %"class.std::basic_ostream"* @_ZSt16__ostream_insertIcSt11char_traitsIcEERSt13basic_ostreamIT_T0_ES6_PKS3_l(%"class.std::basic_ostream"* nonnull align 8 dereferenceable(8) @_ZSt4cout, i8* nonnull %3, i64 1)
  call void @llvm.lifetime.end.p0i8(i64 1, i8* nonnull %3)
  %95 = add nsw i32 %91, 1
  %96 = icmp eq i32 %95, %80
  br i1 %96, label %97, label %99

97:                                               ; preds = %89
  call void @llvm.lifetime.start.p0i8(i64 1, i8* nonnull %2)
  store i8 32, i8* %2, align 1, !tbaa !18
  %98 = call nonnull align 8 dereferenceable(8) %"class.std::basic_ostream"* @_ZSt16__ostream_insertIcSt11char_traitsIcEERSt13basic_ostreamIT_T0_ES6_PKS3_l(%"class.std::basic_ostream"* nonnull align 8 dereferenceable(8) @_ZSt4cout, i8* nonnull %2, i64 1)
  call void @llvm.lifetime.end.p0i8(i64 1, i8* nonnull %2)
  br label %99

99:                                               ; preds = %89, %97
  %100 = phi i32 [ 0, %97 ], [ %95, %89 ]
  %101 = add nuw nsw i64 %90, 1
  %102 = icmp eq i64 %101, %84
  br i1 %102, label %103, label %89, !llvm.loop !22

103:                                              ; preds = %99, %76
  %104 = phi i32 [ %78, %76 ], [ %100, %99 ]
  %105 = add nuw nsw i64 %77, 1
  %106 = icmp eq i64 %105, %75
  br i1 %106, label %85, label %76, !llvm.loop !23

107:                                              ; preds = %87, %107
  %108 = phi i64 [ 1, %87 ], [ %112, %107 ]
  %109 = getelementptr inbounds [100 x [100 x i8]], [100 x [100 x i8]]* %5, i64 0, i64 %71, i64 %108
  %110 = load i8, i8* %109, align 1, !tbaa !18
  call void @llvm.lifetime.start.p0i8(i64 1, i8* nonnull %1)
  store i8 %110, i8* %1, align 1, !tbaa !18
  %111 = call nonnull align 8 dereferenceable(8) %"class.std::basic_ostream"* @_ZSt16__ostream_insertIcSt11char_traitsIcEERSt13basic_ostreamIT_T0_ES6_PKS3_l(%"class.std::basic_ostream"* nonnull align 8 dereferenceable(8) @_ZSt4cout, i8* nonnull %1, i64 1)
  call void @llvm.lifetime.end.p0i8(i64 1, i8* nonnull %1)
  %112 = add nuw nsw i64 %108, 1
  %113 = icmp eq i64 %112, %88
  br i1 %113, label %114, label %107, !llvm.loop !24

114:                                              ; preds = %107, %0, %85
  call void @llvm.lifetime.end.p0i8(i64 400, i8* nonnull %8) #6
  call void @llvm.lifetime.end.p0i8(i64 10000, i8* nonnull %7) #6
  call void @llvm.lifetime.end.p0i8(i64 1, i8* nonnull %4) #6
  ret i32 0
}

; Function Attrs: argmemonly mustprogress nofree nosync nounwind willreturn
declare void @llvm.lifetime.start.p0i8(i64 immarg, i8* nocapture) #4

declare nonnull align 8 dereferenceable(16) %"class.std::basic_istream"* @_ZNSi3getERc(%"class.std::basic_istream"* nonnull align 8 dereferenceable(16), i8* nonnull align 1 dereferenceable(1)) local_unnamed_addr #0

; Function Attrs: argmemonly mustprogress nofree nosync nounwind willreturn
declare void @llvm.lifetime.end.p0i8(i64 immarg, i8* nocapture) #4

declare nonnull align 8 dereferenceable(8) %"class.std::basic_ostream"* @_ZSt16__ostream_insertIcSt11char_traitsIcEERSt13basic_ostreamIT_T0_ES6_PKS3_l(%"class.std::basic_ostream"* nonnull align 8 dereferenceable(8), i8*, i64) local_unnamed_addr #0

; Function Attrs: sspstrong uwtable
define internal void @_GLOBAL__sub_I_2427.cpp() #5 section ".text.startup" {
  tail call void @_ZNSt8ios_base4InitC1Ev(%"class.std::ios_base::Init"* nonnull align 1 dereferenceable(1) @_ZStL8__ioinit)
  %1 = tail call i32 @__cxa_atexit(void (i8*)* bitcast (void (%"class.std::ios_base::Init"*)* @_ZNSt8ios_base4InitD1Ev to void (i8*)*), i8* getelementptr inbounds (%"class.std::ios_base::Init", %"class.std::ios_base::Init"* @_ZStL8__ioinit, i64 0, i32 0), i8* nonnull @__dso_handle) #6
  ret void
}


!llvm.module.flags = !{!0, !1, !2, !3}
!llvm.ident = !{!4}

!0 = !{i32 1, !"wchar_size", i32 4}
!1 = !{i32 7, !"PIC Level", i32 2}
!2 = !{i32 7, !"PIE Level", i32 2}
!3 = !{i32 7, !"uwtable", i32 1}
!4 = !{!"clang version 13.0.0"}
!5 = !{!6, !6, i64 0}
!6 = !{!"vtable pointer", !7, i64 0}
!7 = !{!"Simple C++ TBAA"}
!8 = !{!9, !13, i64 32}
!9 = !{!"_ZTSSt8ios_base", !10, i64 8, !10, i64 16, !12, i64 24, !13, i64 28, !13, i64 32, !14, i64 40, !15, i64 48, !11, i64 64, !16, i64 192, !14, i64 200, !17, i64 208}
!10 = !{!"long", !11, i64 0}
!11 = !{!"omnipotent char", !7, i64 0}
!12 = !{!"_ZTSSt13_Ios_Fmtflags", !11, i64 0}
!13 = !{!"_ZTSSt12_Ios_Iostate", !11, i64 0}
!14 = !{!"any pointer", !11, i64 0}
!15 = !{!"_ZTSNSt8ios_base6_WordsE", !14, i64 0, !10, i64 8}
!16 = !{!"int", !11, i64 0}
!17 = !{!"_ZTSSt6locale", !14, i64 0}
!18 = !{!11, !11, i64 0}
!19 = !{!16, !16, i64 0}
!20 = distinct !{!20, !21}
!21 = !{!"llvm.loop.mustprogress"}
!22 = distinct !{!22, !21}
!23 = distinct !{!23, !21}
!24 = distinct !{!24, !21}
